; Function Attrs: mustprogress uwtable
define i32 @uspoof_areConfusableUTF8_75(ptr noundef %sc, ptr noundef %id1, i32 noundef %length1, ptr noundef %id2, i32 noundef %length2, ptr noundef nonnull %status) local_unnamed_addr #0 personality ptr @__gxx_personality_v0 {
entry:
  %id1Str = alloca %"class.icu_75::UnicodeString", align 8
  %id2Str = alloca %"class.icu_75::UnicodeString", align 8
  %call = tail call noundef ptr @_ZN6icu_759SpoofImpl12validateThisEPK13USpoofCheckerR10UErrorCode(ptr noundef %sc, ptr noundef nonnull align 4 dereferenceable(4) %status)
  %0 = load i32, ptr %status, align 4
  %cmp.i = icmp slt i32 %0, 1
  br i1 %cmp.i, label %if.end, label %return

if.end:                                           ; preds = %entry
  %cmp = icmp slt i32 %length1, -1
  %cmp2 = icmp slt i32 %length2, -1
  %or.cond = or i1 %cmp, %cmp2
  br i1 %or.cond, label %if.then3, label %if.end4

if.then3:                                         ; preds = %if.end
  store i32 1, ptr %status, align 4
  br label %return

if.end4:                                          ; preds = %if.end
  %cmp5 = icmp sgt i32 %length1, -1
  br i1 %cmp5, label %cond.end, label %cond.false

cond.false:                                       ; preds = %if.end4
  %call6 = tail call i64 @strlen(ptr noundef nonnull dereferenceable(1) %id1) #7
  %conv = trunc i64 %call6 to i32
  br label %cond.end

cond.end:                                         ; preds = %if.end4, %cond.false
  %cond = phi i32 [ %conv, %cond.false ], [ %length1, %if.end4 ]
  call void @_ZN6icu_7513UnicodeString8fromUTF8ENS_11StringPieceE(ptr nonnull sret(%"class.icu_75::UnicodeString") align 8 %id1Str, ptr %id1, i32 %cond)
  %cmp8 = icmp sgt i32 %length2, -1
  br i1 %cmp8, label %cond.end13, label %cond.false10

cond.false10:                                     ; preds = %cond.end
  %call11 = call i64 @strlen(ptr noundef nonnull dereferenceable(1) %id2) #7
  %conv12 = trunc i64 %call11 to i32
  br label %cond.end13

cond.end13:                                       ; preds = %cond.end, %cond.false10
  %cond14 = phi i32 [ %conv12, %cond.false10 ], [ %length2, %cond.end ]
  invoke void @_ZN6icu_7513UnicodeString8fromUTF8ENS_11StringPieceE(ptr nonnull sret(%"class.icu_75::UnicodeString") align 8 %id2Str, ptr %id2, i32 %cond14)
          to label %invoke.cont15 unwind label %lpad

invoke.cont15:                                    ; preds = %cond.end13
  %call18 = invoke i32 @uspoof_areConfusableUnicodeString_75(ptr noundef %sc, ptr noundef nonnull align 8 dereferenceable(64) %id1Str, ptr noundef nonnull align 8 dereferenceable(64) %id2Str, ptr noundef nonnull %status)
          to label %invoke.cont17 unwind label %lpad16

invoke.cont17:                                    ; preds = %invoke.cont15
  call void @_ZN6icu_7513UnicodeStringD1Ev(ptr noundef nonnull align 8 dereferenceable(64) %id2Str) #6
  call void @_ZN6icu_7513UnicodeStringD1Ev(ptr noundef nonnull align 8 dereferenceable(64) %id1Str) #6
  br label %return

lpad:                                             ; preds = %cond.end13
  %1 = landingpad { ptr, i32 }
          cleanup
  br label %ehcleanup

lpad16:                                           ; preds = %invoke.cont15
  %2 = landingpad { ptr, i32 }
          cleanup
  call void @_ZN6icu_7513UnicodeStringD1Ev(ptr noundef nonnull align 8 dereferenceable(64) %id2Str) #6
  br label %ehcleanup

ehcleanup:                                        ; preds = %lpad16, %lpad
  %.pn = phi { ptr, i32 } [ %2, %lpad16 ], [ %1, %lpad ]
  call void @_ZN6icu_7513UnicodeStringD1Ev(ptr noundef nonnull align 8 dereferenceable(64) %id1Str) #6
  resume { ptr, i32 } %.pn

return:                                           ; preds = %entry, %invoke.cont17, %if.then3
  %retval.0 = phi i32 [ 0, %if.then3 ], [ %call18, %invoke.cont17 ], [ 0, %entry ]
  ret i32 %retval.0
}